target datalayout = "e-m:e-p270:32:32-p271:32:32-p272:64:64-i64:64-i128:128-f80:128-n8:16:32:64-S128"
target triple = "x86_64-pc-linux-gnu"

@.str.2 = private unnamed_addr constant [25 x i8] c"../openssl/ssl/bio_ssl.c\00", align 1

; Function Attrs: nounwind uwtable
define internal i32 @ssl_new(ptr noundef %0) #0 {
  %2 = alloca i32, align 4
  %3 = alloca ptr, align 8
  %4 = alloca ptr, align 8
  %5 = alloca i32, align 4
  store ptr %0, ptr %3, align 8, !tbaa !8
  call void @llvm.lifetime.start.p0(i64 8, ptr %4) #5
  %6 = call noalias ptr @CRYPTO_zalloc(i64 noundef 48, ptr noundef @.str.2, i32 noundef 64)
  store ptr %6, ptr %4, align 8, !tbaa !50
  %7 = load ptr, ptr %4, align 8, !tbaa !50
  %8 = icmp eq ptr %7, null
  br i1 %8, label %9, label %10

9:                                                ; preds = %1
  store i32 0, ptr %2, align 4
  store i32 1, ptr %5, align 4
  br label %15

10:                                               ; preds = %1
  %11 = load ptr, ptr %3, align 8, !tbaa !8
  call void @BIO_set_init(ptr noundef %11, i32 noundef 0)
  %12 = load ptr, ptr %3, align 8, !tbaa !8
  %13 = load ptr, ptr %4, align 8, !tbaa !50
  call void @BIO_set_data(ptr noundef %12, ptr noundef %13)
  %14 = load ptr, ptr %3, align 8, !tbaa !8
  call void @BIO_clear_flags(ptr noundef %14, i32 noundef -1)
  store i32 1, ptr %2, align 4
  store i32 1, ptr %5, align 4
  br label %15

15:                                               ; preds = %10, %9
  call void @llvm.lifetime.end.p0(i64 8, ptr %4) #5
  %16 = load i32, ptr %2, align 4
  ret i32 %16
}