; Function Attrs: nounwind uwtable
define internal range(i32 0, 2) i32 @ssl_new(ptr noundef %0) #1 {
  %2 = tail call noalias ptr @CRYPTO_zalloc(i64 noundef 48, ptr noundef nonnull @.str.2, i32 noundef 64) #5
  %3 = icmp eq ptr %2, null
  br i1 %3, label %5, label %4

4:                                                ; preds = %1
  tail call void @BIO_set_init(ptr noundef %0, i32 noundef 0) #5
  tail call void @BIO_set_data(ptr noundef %0, ptr noundef nonnull %2) #5
  tail call void @BIO_clear_flags(ptr noundef %0, i32 noundef -1) #5
  br label %5

5:                                                ; preds = %1, %4
  %.0 = phi i32 [ 1, %4 ], [ 0, %1 ]
  ret i32 %.0
}